target datalayout = "e-m:e-p270:32:32-p271:32:32-p272:64:64-i64:64-i128:128-f80:128-n8:16:32:64-S128"
target triple = "x86_64-pc-linux-gnu"

%"class.std::__cxx11::basic_string" = type { %"struct.std::__cxx11::basic_string<char>::_Alloc_hider", i64, %union.anon }
%"struct.std::__cxx11::basic_string<char>::_Alloc_hider" = type { ptr }
%union.anon = type { i64, [8 x i8] }
%"class.std::allocator.48" = type { i8 }

@.str.147 = private unnamed_addr constant [11 x i8] c"          \00", align 1
@.str.148 = private unnamed_addr constant [16 x i8] c"\0A              \00", align 1

; Function Attrs: mustprogress uwtable
define internal void @_ZN12_GLOBAL__N_112fold_abc_cmdENSt7__cxx1112basic_stringIcSt11char_traitsIcESaIcEEE(ptr dead_on_unwind noalias writable sret(%"class.std::__cxx11::basic_string") align 8 %0, ptr noundef %1) #4 personality ptr @__gxx_personality_v0 {
  %3 = alloca ptr, align 8
  %4 = alloca ptr, align 8
  %5 = alloca %"class.std::__cxx11::basic_string", align 8
  %6 = alloca i1, align 1
  %7 = alloca %"class.std::allocator.48", align 1
  %8 = alloca ptr, align 8
  %9 = alloca i32, align 4
  %10 = alloca i32, align 4
  %11 = alloca i64, align 8
  store ptr %0, ptr %3, align 8
  store ptr %1, ptr %4, align 8
  call void @_ZNSt7__cxx1112basic_stringIcSt11char_traitsIcESaIcEEC1Ev(ptr noundef nonnull align 8 dereferenceable(32) %5) #3
  store i1 false, ptr %6, align 1
  call void @_ZNSaIcEC1Ev(ptr noundef nonnull align 1 dereferenceable(1) %7) #3
  invoke void @_ZNSt7__cxx1112basic_stringIcSt11char_traitsIcESaIcEEC1EPKcRKS3_(ptr noundef nonnull align 8 dereferenceable(32) %0, ptr noundef @.str.147, ptr noundef nonnull align 1 dereferenceable(1) %7)
          to label %12 unwind label %28

12:                                               ; preds = %2
  call void @_ZNSaIcED1Ev(ptr noundef nonnull align 1 dereferenceable(1) %7) #3
  store i32 10, ptr %10, align 4
  store i64 0, ptr %11, align 8
  br label %13

13:                                               ; preds = %65, %12
  %14 = load i64, ptr %11, align 8
  %15 = call noundef i64 @_ZNKSt7__cxx1112basic_stringIcSt11char_traitsIcESaIcEE4sizeEv(ptr noundef nonnull align 8 dereferenceable(32) %1) #3
  %16 = icmp ule i64 %14, %15
  br i1 %16, label %17, label %68

17:                                               ; preds = %13
  %18 = load i64, ptr %11, align 8
  %19 = call noundef i64 @_ZNKSt7__cxx1112basic_stringIcSt11char_traitsIcESaIcEE4sizeEv(ptr noundef nonnull align 8 dereferenceable(32) %1) #3
  %20 = icmp ult i64 %18, %19
  br i1 %20, label %21, label %36

21:                                               ; preds = %17
  %22 = load i64, ptr %11, align 8
  %23 = invoke noundef nonnull align 1 dereferenceable(1) ptr @_ZNSt7__cxx1112basic_stringIcSt11char_traitsIcESaIcEEixEm(ptr noundef nonnull align 8 dereferenceable(32) %1, i64 noundef %22)
          to label %24 unwind label %32

24:                                               ; preds = %21
  %25 = load i8, ptr %23, align 1
  %26 = invoke noundef nonnull align 8 dereferenceable(32) ptr @_ZNSt7__cxx1112basic_stringIcSt11char_traitsIcESaIcEEpLEc(ptr noundef nonnull align 8 dereferenceable(32) %5, i8 noundef signext %25)
          to label %27 unwind label %32

27:                                               ; preds = %24
  br label %36

28:                                               ; preds = %2
  %29 = landingpad { ptr, i32 }
          cleanup
  %30 = extractvalue { ptr, i32 } %29, 0
  store ptr %30, ptr %8, align 8
  %31 = extractvalue { ptr, i32 } %29, 1
  store i32 %31, ptr %9, align 4
  call void @_ZNSaIcED1Ev(ptr noundef nonnull align 1 dereferenceable(1) %7) #3
  br label %72

32:                                               ; preds = %56, %53, %40, %24, %21
  %33 = landingpad { ptr, i32 }
          cleanup
  %34 = extractvalue { ptr, i32 } %33, 0
  store ptr %34, ptr %8, align 8
  %35 = extractvalue { ptr, i32 } %33, 1
  store i32 %35, ptr %9, align 4
  call void @_ZNSt7__cxx1112basic_stringIcSt11char_traitsIcESaIcEED1Ev(ptr noundef nonnull align 8 dereferenceable(32) %0) #3
  br label %72

36:                                               ; preds = %27, %17
  %37 = load i64, ptr %11, align 8
  %38 = call noundef i64 @_ZNKSt7__cxx1112basic_stringIcSt11char_traitsIcESaIcEE4sizeEv(ptr noundef nonnull align 8 dereferenceable(32) %1) #3
  %39 = icmp eq i64 %37, %38
  br i1 %39, label %47, label %40

40:                                               ; preds = %36
  %41 = load i64, ptr %11, align 8
  %42 = invoke noundef nonnull align 1 dereferenceable(1) ptr @_ZNSt7__cxx1112basic_stringIcSt11char_traitsIcESaIcEEixEm(ptr noundef nonnull align 8 dereferenceable(32) %1, i64 noundef %41)
          to label %43 unwind label %32

43:                                               ; preds = %40
  %44 = load i8, ptr %42, align 1
  %45 = sext i8 %44 to i32
  %46 = icmp eq i32 %45, 59
  br i1 %46, label %47, label %64

47:                                               ; preds = %43, %36
  %48 = load i32, ptr %10, align 4
  %49 = sext i32 %48 to i64
  %50 = call noundef i64 @_ZNKSt7__cxx1112basic_stringIcSt11char_traitsIcESaIcEE4sizeEv(ptr noundef nonnull align 8 dereferenceable(32) %5) #3
  %51 = add i64 %49, %50
  %52 = icmp ugt i64 %51, 75
  br i1 %52, label %53, label %56

53:                                               ; preds = %47
  %54 = invoke noundef nonnull align 8 dereferenceable(32) ptr @_ZNSt7__cxx1112basic_stringIcSt11char_traitsIcESaIcEEpLEPKc(ptr noundef nonnull align 8 dereferenceable(32) %0, ptr noundef @.str.148)
          to label %55 unwind label %32

55:                                               ; preds = %53
  store i32 14, ptr %10, align 4
  br label %56

56:                                               ; preds = %55, %47
  %57 = invoke noundef nonnull align 8 dereferenceable(32) ptr @_ZNSt7__cxx1112basic_stringIcSt11char_traitsIcESaIcEEpLERKS4_(ptr noundef nonnull align 8 dereferenceable(32) %0, ptr noundef nonnull align 8 dereferenceable(32) %5)
          to label %58 unwind label %32

58:                                               ; preds = %56
  %59 = call noundef i64 @_ZNKSt7__cxx1112basic_stringIcSt11char_traitsIcESaIcEE4sizeEv(ptr noundef nonnull align 8 dereferenceable(32) %5) #3
  %60 = load i32, ptr %10, align 4
  %61 = sext i32 %60 to i64
  %62 = add i64 %61, %59
  %63 = trunc i64 %62 to i32
  store i32 %63, ptr %10, align 4
  call void @_ZNSt7__cxx1112basic_stringIcSt11char_traitsIcESaIcEE5clearEv(ptr noundef nonnull align 8 dereferenceable(32) %5) #3
  br label %64

64:                                               ; preds = %58, %43
  br label %65

65:                                               ; preds = %64
  %66 = load i64, ptr %11, align 8
  %67 = add i64 %66, 1
  store i64 %67, ptr %11, align 8
  br label %13, !llvm.loop !27

68:                                               ; preds = %13
  store i1 true, ptr %6, align 1
  %69 = load i1, ptr %6, align 1
  br i1 %69, label %71, label %70

70:                                               ; preds = %68
  call void @_ZNSt7__cxx1112basic_stringIcSt11char_traitsIcESaIcEED1Ev(ptr noundef nonnull align 8 dereferenceable(32) %0) #3
  br label %71

71:                                               ; preds = %70, %68
  call void @_ZNSt7__cxx1112basic_stringIcSt11char_traitsIcESaIcEED1Ev(ptr noundef nonnull align 8 dereferenceable(32) %5) #3
  ret void

72:                                               ; preds = %32, %28
  call void @_ZNSt7__cxx1112basic_stringIcSt11char_traitsIcESaIcEED1Ev(ptr noundef nonnull align 8 dereferenceable(32) %5) #3
  br label %73

73:                                               ; preds = %72
  %74 = load ptr, ptr %8, align 8
  %75 = load i32, ptr %9, align 4
  %76 = insertvalue { ptr, i32 } poison, ptr %74, 0
  %77 = insertvalue { ptr, i32 } %76, i32 %75, 1
  resume { ptr, i32 } %77
}